target datalayout = "e-m:e-p270:32:32-p271:32:32-p272:64:64-i64:64-i128:128-f80:128-n8:16:32:64-S128"
target triple = "x86_64-pc-linux-gnu"

%struct._N_VectorContent_Serial = type { i64, i32, ptr }
%struct._generic_N_Vector = type { ptr, ptr }

; Function Attrs: nounwind uwtable
define ptr @N_VMake_Serial(i64 noundef %0, ptr noundef %1) #0 {
  %3 = alloca ptr, align 8
  %4 = alloca i64, align 8
  %5 = alloca ptr, align 8
  %6 = alloca ptr, align 8
  %7 = alloca i32, align 4
  store i64 %0, ptr %4, align 8, !tbaa !3
  store ptr %1, ptr %5, align 8, !tbaa !49
  call void @llvm.lifetime.start.p0(i64 8, ptr %6) #6
  store ptr null, ptr %6, align 8, !tbaa !7
  %8 = load i64, ptr %4, align 8, !tbaa !3
  %9 = call ptr @N_VNewEmpty_Serial(i64 noundef %8)
  store ptr %9, ptr %6, align 8, !tbaa !7
  %10 = load ptr, ptr %6, align 8, !tbaa !7
  %11 = icmp eq ptr %10, null
  br i1 %11, label %12, label %13

12:                                               ; preds = %2
  store ptr null, ptr %3, align 8
  store i32 1, ptr %7, align 4
  br label %28

13:                                               ; preds = %2
  %14 = load i64, ptr %4, align 8, !tbaa !3
  %15 = icmp sgt i64 %14, 0
  br i1 %15, label %16, label %26

16:                                               ; preds = %13
  %17 = load ptr, ptr %6, align 8, !tbaa !7
  %18 = getelementptr inbounds nuw %struct._generic_N_Vector, ptr %17, i32 0, i32 0
  %19 = load ptr, ptr %18, align 8, !tbaa !46
  %20 = getelementptr inbounds nuw %struct._N_VectorContent_Serial, ptr %19, i32 0, i32 1
  store i32 0, ptr %20, align 8, !tbaa !44
  %21 = load ptr, ptr %5, align 8, !tbaa !49
  %22 = load ptr, ptr %6, align 8, !tbaa !7
  %23 = getelementptr inbounds nuw %struct._generic_N_Vector, ptr %22, i32 0, i32 0
  %24 = load ptr, ptr %23, align 8, !tbaa !46
  %25 = getelementptr inbounds nuw %struct._N_VectorContent_Serial, ptr %24, i32 0, i32 2
  store ptr %21, ptr %25, align 8, !tbaa !45
  br label %26

26:                                               ; preds = %16, %13
  %27 = load ptr, ptr %6, align 8, !tbaa !7
  store ptr %27, ptr %3, align 8
  store i32 1, ptr %7, align 4
  br label %28

28:                                               ; preds = %26, %12
  call void @llvm.lifetime.end.p0(i64 8, ptr %6) #6
  %29 = load ptr, ptr %3, align 8
  ret ptr %29
}