; Function Attrs: mustprogress nounwind willreturn uwtable
define noalias noundef ptr @N_VMake_Serial(i64 noundef %0, ptr noundef %1) local_unnamed_addr #3 {
  %3 = tail call ptr @N_VNewEmpty_Serial(i64 noundef %0)
  %4 = icmp ne ptr %3, null
  %5 = icmp sgt i64 %0, 0
  %or.cond = and i1 %5, %4
  br i1 %or.cond, label %6, label %10

6:                                                ; preds = %2
  %7 = load ptr, ptr %3, align 8, !tbaa !39
  %8 = getelementptr inbounds nuw i8, ptr %7, i64 8
  store i32 0, ptr %8, align 8, !tbaa !37
  %9 = getelementptr inbounds nuw i8, ptr %7, i64 16
  store ptr %1, ptr %9, align 8, !tbaa !38
  br label %10

10:                                               ; preds = %6, %2
  ret ptr %3
}